; Function Attrs: mustprogress uwtable
define hidden void @_ZN4cvc58internal6theory2bv5utils5mkNotENS0_12NodeTemplateILb1EEE(ptr dead_on_unwind noalias writable sret(%"class.cvc5::internal::NodeTemplate.0") align 8 %0, ptr noundef readonly captures(none) %1) local_unnamed_addr #3 personality ptr @__gxx_personality_v0 {
.noexc:
  %2 = alloca %"class.cvc5::internal::NodeBuilder", align 8
  %3 = alloca %"class.cvc5::internal::NodeTemplate", align 8
  %4 = load ptr, ptr %1, align 8, !tbaa !21
  call void @llvm.lifetime.start.p0(i64 8, ptr nonnull %3)
  call void @llvm.lifetime.start.p0(i64 128, ptr nonnull %2) #22, !noalias !125
  %5 = getelementptr inbounds nuw i8, ptr %4, i64 16
  %6 = load ptr, ptr %5, align 8, !tbaa !26, !noalias !125
  call void @_ZN4cvc58internal11NodeBuilderC1EPNS0_11NodeManagerENS0_4kind6Kind_tE(ptr noundef nonnull align 8 dereferenceable(124) %2, ptr noundef %6, i32 noundef 21)
  store ptr %4, ptr %3, align 8, !tbaa !10, !noalias !125
  %7 = invoke noundef nonnull align 8 dereferenceable(124) ptr @_ZN4cvc58internal11NodeBuilderlsENS0_12NodeTemplateILb0EEE(ptr noundef nonnull align 8 dereferenceable(124) %2, ptr noundef nonnull %3)
          to label %8 unwind label %11, !noalias !125

8:                                                ; preds = %.noexc
  invoke void @_ZN4cvc58internal11NodeBuilder13constructNodeEv(ptr dead_on_unwind writable sret(%"class.cvc5::internal::NodeTemplate.0") align 8 %0, ptr noundef nonnull align 8 dereferenceable(124) %2)
          to label %13 unwind label %9

9:                                                ; preds = %8
  %10 = landingpad { ptr, i32 }
          cleanup
  br label %.body

11:                                               ; preds = %.noexc
  %12 = landingpad { ptr, i32 }
          cleanup
  br label %.body

.body:                                            ; preds = %11, %9
  %.pn.i = phi { ptr, i32 } [ %10, %9 ], [ %12, %11 ]
  call void @_ZN4cvc58internal11NodeBuilderD1Ev(ptr noundef nonnull align 8 dereferenceable(124) %2) #22
  call void @llvm.lifetime.end.p0(i64 128, ptr nonnull %2) #22, !noalias !125
  resume { ptr, i32 } %.pn.i

13:                                               ; preds = %8
  call void @_ZN4cvc58internal11NodeBuilderD1Ev(ptr noundef nonnull align 8 dereferenceable(124) %2) #22
  call void @llvm.lifetime.end.p0(i64 128, ptr nonnull %2) #22, !noalias !125
  call void @llvm.lifetime.end.p0(i64 8, ptr nonnull %3)
  ret void
}